; Function Attrs: mustprogress null_pointer_is_valid sspstrong uwtable
define void @_ZN23LBMLBTRUTransportDialog29receiversDetailCurrentChangedEi(ptr noundef align 8 captures(none) dereferenceable_or_null(112) %0, i32 noundef %1) local_unnamed_addr #0 align 2 {
  %3 = icmp ult i32 %1, 3
  br i1 %3, label %switch.lookup, label %11

switch.lookup:                                    ; preds = %2
  %4 = zext nneg i32 %1 to i64
  %switch.gep = getelementptr inbounds nuw [3 x i32], ptr @switch.table._ZN23LBMLBTRUTransportDialog29receiversDetailCurrentChangedEi, i64 0, i64 %4
  %switch.load = load i32, ptr %switch.gep, align 4
  %5 = getelementptr inbounds nuw i8, ptr %0, i64 40
  %6 = load ptr, ptr %5, align 8
  %7 = getelementptr inbounds nuw i8, ptr %6, i64 640
  %8 = load ptr, ptr %7, align 8
  tail call void @_ZN14QStackedWidget15setCurrentIndexEi(ptr noundef align 8 dereferenceable_or_null(40) %8, i32 noundef %switch.load)
  %9 = getelementptr inbounds nuw i8, ptr %0, i64 72
  %10 = load ptr, ptr %9, align 8
  tail call void @_ZN23LBMLBTRUTransportDialog20receiversItemClickedEP15QTreeWidgetItemi(ptr noundef align 8 dereferenceable_or_null(112) %0, ptr noundef %10, i32 poison)
  br label %11

11:                                               ; preds = %2, %switch.lookup
  ret void
}